; ModuleID = '30/150.c'
source_filename = "30/150.c"
target datalayout = "e-m:e-p270:32:32-p271:32:32-p272:64:64-i64:64-f80:128-n8:16:32:64-S128"
target triple = "x86_64-pc-linux-gnu"

@Sum = dso_local global i32 0, align 4
@.str = private unnamed_addr constant [3 x i8] c"%d\00", align 1
@N = common dso_local global i32 0, align 4
@.str.1 = private unnamed_addr constant [4 x i8] c"%d\0A\00", align 1

; Function Attrs: noinline nounwind uwtable
define dso_local i32 @main() #0 {
  %1 = alloca i32, align 4
  %2 = alloca i32, align 4
  %3 = alloca i32, align 4
  %4 = alloca i32, align 4
  store i32 0, i32* %1, align 4
  %5 = call i32 (i8*, ...) @__isoc99_scanf(i8* getelementptr inbounds ([3 x i8], [3 x i8]* @.str, i64 0, i64 0), i32* @N)
  store i32 1, i32* %2, align 4
  br label %6

6:                                                ; preds = %43, %0
  %7 = load i32, i32* %2, align 4
  %8 = load i32, i32* @N, align 4
  %9 = icmp sle i32 %7, %8
  br i1 %9, label %10, label %46

10:                                               ; preds = %6
  %11 = load i32, i32* %2, align 4
  %12 = srem i32 %11, 7
  %13 = icmp eq i32 %12, 0
  br i1 %13, label %14, label %15

14:                                               ; preds = %10
  br label %43

15:                                               ; preds = %10
  %16 = load i32, i32* %2, align 4
  store i32 %16, i32* %4, align 4
  store i32 1, i32* %3, align 4
  br label %17

17:                                               ; preds = %30, %15
  %18 = load i32, i32* %4, align 4
  %19 = icmp sgt i32 %18, 0
  br i1 %19, label %20, label %23

20:                                               ; preds = %17
  %21 = load i32, i32* %3, align 4
  %22 = icmp ne i32 %21, 0
  br label %23

23:                                               ; preds = %20, %17
  %24 = phi i1 [ false, %17 ], [ %22, %20 ]
  br i1 %24, label %25, label %33

25:                                               ; preds = %23
  %26 = load i32, i32* %4, align 4
  %27 = srem i32 %26, 10
  %28 = icmp eq i32 %27, 7
  br i1 %28, label %29, label %30

29:                                               ; preds = %25
  store i32 0, i32* %3, align 4
  br label %30

30:                                               ; preds = %29, %25
  %31 = load i32, i32* %4, align 4
  %32 = sdiv i32 %31, 10
  store i32 %32, i32* %4, align 4
  br label %17

33:                                               ; preds = %23
  %34 = load i32, i32* %3, align 4
  %35 = icmp ne i32 %34, 0
  br i1 %35, label %37, label %36

36:                                               ; preds = %33
  br label %43

37:                                               ; preds = %33
  %38 = load i32, i32* %2, align 4
  %39 = load i32, i32* %2, align 4
  %40 = mul nsw i32 %38, %39
  %41 = load i32, i32* @Sum, align 4
  %42 = add nsw i32 %41, %40
  store i32 %42, i32* @Sum, align 4
  br label %43

43:                                               ; preds = %37, %36, %14
  %44 = load i32, i32* %2, align 4
  %45 = add nsw i32 %44, 1
  store i32 %45, i32* %2, align 4
  br label %6

46:                                               ; preds = %6
  %47 = load i32, i32* @Sum, align 4
  %48 = call i32 (i8*, ...) @printf(i8* getelementptr inbounds ([4 x i8], [4 x i8]* @.str.1, i64 0, i64 0), i32 %47)
  ret i32 0
}

declare dso_local i32 @__isoc99_scanf(i8*, ...) #1

declare dso_local i32 @printf(i8*, ...) #1


!llvm.module.flags = !{!0}
!llvm.ident = !{!1}

!0 = !{i32 1, !"wchar_size", i32 4}
!1 = !{!"clang version 10.0.0-4ubuntu1 "}
