; ModuleID = 'source-C-CXX/29/150.c'
source_filename = "source-C-CXX/29/150.c"
target datalayout = "e-m:e-p270:32:32-p271:32:32-p272:64:64-i64:64-f80:128-n8:16:32:64-S128"
target triple = "x86_64-pc-linux-gnu"

@Sum = dso_local local_unnamed_addr global i32 0, align 4
@.str = private unnamed_addr constant [3 x i8] c"%d\00", align 1
@N = dso_local global i32 0, align 4
@.str.1 = private unnamed_addr constant [4 x i8] c"%d\0A\00", align 1

; Function Attrs: nofree nounwind sspstrong uwtable
define dso_local i32 @main() local_unnamed_addr #0 {
  %1 = tail call i32 (i8*, ...) @__isoc99_scanf(i8* getelementptr inbounds ([3 x i8], [3 x i8]* @.str, i64 0, i64 0), i32* nonnull @N)
  %2 = load i32, i32* @N, align 4, !tbaa !5
  %3 = icmp slt i32 %2, 1
  br i1 %3, label %23, label %4

4:                                                ; preds = %0, %20
  %5 = phi i32 [ %21, %20 ], [ 1, %0 ]
  %6 = urem i32 %5, 7
  %7 = icmp eq i32 %6, 0
  br i1 %7, label %20, label %8

8:                                                ; preds = %4, %8
  %9 = phi i32 [ %12, %8 ], [ %5, %4 ]
  %10 = urem i32 %9, 10
  %11 = icmp ne i32 %10, 7
  %12 = udiv i32 %9, 10
  %13 = icmp ugt i32 %9, 9
  %14 = and i1 %11, %13
  br i1 %14, label %8, label %15, !llvm.loop !9

15:                                               ; preds = %8
  br i1 %11, label %16, label %20

16:                                               ; preds = %15
  %17 = mul nsw i32 %5, %5
  %18 = load i32, i32* @Sum, align 4, !tbaa !5
  %19 = add nsw i32 %18, %17
  store i32 %19, i32* @Sum, align 4, !tbaa !5
  br label %20

20:                                               ; preds = %15, %4, %16
  %21 = add nuw i32 %5, 1
  %22 = icmp eq i32 %5, %2
  br i1 %22, label %23, label %4, !llvm.loop !11

23:                                               ; preds = %20, %0
  %24 = load i32, i32* @Sum, align 4, !tbaa !5
  %25 = tail call i32 (i8*, ...) @printf(i8* nonnull dereferenceable(1) getelementptr inbounds ([4 x i8], [4 x i8]* @.str.1, i64 0, i64 0), i32 %24)
  ret i32 0
}

; Function Attrs: nofree nounwind
declare noundef i32 @__isoc99_scanf(i8* nocapture noundef readonly, ...) local_unnamed_addr #1

; Function Attrs: nofree nounwind
declare noundef i32 @printf(i8* nocapture noundef readonly, ...) local_unnamed_addr #1


!llvm.module.flags = !{!0, !1, !2, !3}
!llvm.ident = !{!4}

!0 = !{i32 1, !"wchar_size", i32 4}
!1 = !{i32 7, !"PIC Level", i32 2}
!2 = !{i32 7, !"PIE Level", i32 2}
!3 = !{i32 7, !"uwtable", i32 1}
!4 = !{!"clang version 13.0.0"}
!5 = !{!6, !6, i64 0}
!6 = !{!"int", !7, i64 0}
!7 = !{!"omnipotent char", !8, i64 0}
!8 = !{!"Simple C/C++ TBAA"}
!9 = distinct !{!9, !10}
!10 = !{!"llvm.loop.mustprogress"}
!11 = distinct !{!11, !10}
